target datalayout = "e-m:e-p270:32:32-p271:32:32-p272:64:64-i64:64-i128:128-f80:128-n8:16:32:64-S128"
target triple = "x86_64-pc-linux-gnu"

%struct.reassembly_table = type { ptr, ptr, ptr, ptr, ptr }
%struct.reassembly_table_functions = type { ptr, ptr, ptr, ptr, ptr, ptr }

@scsi_tap = internal global i32 0, align 4
@proto_scsi = internal global i32 0, align 4
@.str.75 = private unnamed_addr constant [5 x i8] c"SCSI\00", align 1
@scsi_defragment = internal global i32 0, align 4
@scsi_reassembly_table = internal global %struct.reassembly_table zeroinitializer, align 8
@.str.1333 = private unnamed_addr constant [5 x i8] c"scsi\00", align 1
@.str.1334 = private unnamed_addr constant [24 x i8] c"decode_scsi_messages_as\00", align 1
@.str.1335 = private unnamed_addr constant [24 x i8] c"Decode SCSI Messages As\00", align 1
@.str.1336 = private unnamed_addr constant [58 x i8] c"When Target Cannot Be Identified, Decode SCSI Messages As\00", align 1
@scsi_def_devtype = internal global i32 0, align 4
@.str.1337 = private unnamed_addr constant [11 x i8] c"defragment\00", align 1
@.str.1338 = private unnamed_addr constant [49 x i8] c"Reassemble fragmented SCSI DATA IN/OUT transfers\00", align 1
@.str.1339 = private unnamed_addr constant [68 x i8] c"Whether fragmented SCSI DATA IN/OUT transfers should be reassembled\00", align 1
@addresses_reassembly_table_functions = external constant %struct.reassembly_table_functions, align 8

; Function Attrs: nounwind uwtable
define hidden void @proto_register_scsi() #0 {
  %1 = alloca ptr, align 8
  %2 = alloca ptr, align 8
  %3 = call i32 @proto_register_protocol(ptr noundef @.str.75, ptr noundef @.str.75, ptr noundef @.str.1333)
  store i32 %3, ptr @proto_scsi, align 4
  %4 = load i32, ptr @proto_scsi, align 4
  call void @proto_register_field_array(i32 noundef %4, ptr noundef @proto_register_scsi.hf, i32 noundef 632)
  call void @proto_register_subtree_array(ptr noundef @proto_register_scsi.ett, i32 noundef 36)
  %5 = load i32, ptr @proto_scsi, align 4
  %6 = call ptr @expert_register_protocol(i32 noundef %5)
  store ptr %6, ptr %2, align 8
  %7 = load ptr, ptr %2, align 8
  call void @expert_register_field_array(ptr noundef %7, ptr noundef @proto_register_scsi.ei, i32 noundef 5)
  %8 = load i32, ptr @proto_scsi, align 4
  %9 = call ptr @prefs_register_protocol(i32 noundef %8, ptr noundef null)
  store ptr %9, ptr %1, align 8
  %10 = load ptr, ptr %1, align 8
  call void @prefs_register_enum_preference(ptr noundef %10, ptr noundef @.str.1334, ptr noundef @.str.1335, ptr noundef @.str.1336, ptr noundef @scsi_def_devtype, ptr noundef @scsi_devtype_options, i32 noundef 0)
  %11 = load ptr, ptr %1, align 8
  call void @prefs_register_bool_preference(ptr noundef %11, ptr noundef @.str.1337, ptr noundef @.str.1338, ptr noundef @.str.1339, ptr noundef @scsi_defragment)
  call void @reassembly_table_register(ptr noundef @scsi_reassembly_table, ptr noundef @addresses_reassembly_table_functions)
  %12 = load i32, ptr @proto_scsi, align 4
  call void @register_srt_table(i32 noundef %12, ptr noundef null, i32 noundef 1, ptr noundef @scsistat_packet, ptr noundef @scsistat_init, ptr noundef @scsistat_param)
  %13 = call i32 @register_tap(ptr noundef @.str.1333)
  store i32 %13, ptr @scsi_tap, align 4
  ret void
}