; Function Attrs: nounwind uwtable
define hidden void @proto_register_scsi() local_unnamed_addr #0 {
  %1 = tail call i32 @proto_register_protocol(ptr noundef nonnull @.str.75, ptr noundef nonnull @.str.75, ptr noundef nonnull @.str.1333) #10
  store i32 %1, ptr @proto_scsi, align 4
  tail call void @proto_register_field_array(i32 noundef %1, ptr noundef nonnull @proto_register_scsi.hf, i32 noundef 632) #10
  tail call void @proto_register_subtree_array(ptr noundef nonnull @proto_register_scsi.ett, i32 noundef 36) #10
  %2 = load i32, ptr @proto_scsi, align 4
  %3 = tail call ptr @expert_register_protocol(i32 noundef %2) #10
  tail call void @expert_register_field_array(ptr noundef %3, ptr noundef nonnull @proto_register_scsi.ei, i32 noundef 5) #10
  %4 = load i32, ptr @proto_scsi, align 4
  %5 = tail call ptr @prefs_register_protocol(i32 noundef %4, ptr noundef null) #10
  tail call void @prefs_register_enum_preference(ptr noundef %5, ptr noundef nonnull @.str.1334, ptr noundef nonnull @.str.1335, ptr noundef nonnull @.str.1336, ptr noundef nonnull @scsi_def_devtype, ptr noundef nonnull @scsi_devtype_options, i32 noundef 0) #10
  tail call void @prefs_register_bool_preference(ptr noundef %5, ptr noundef nonnull @.str.1337, ptr noundef nonnull @.str.1338, ptr noundef nonnull @.str.1339, ptr noundef nonnull @scsi_defragment) #10
  tail call void @reassembly_table_register(ptr noundef nonnull @scsi_reassembly_table, ptr noundef nonnull @addresses_reassembly_table_functions) #10
  %6 = load i32, ptr @proto_scsi, align 4
  tail call void @register_srt_table(i32 noundef %6, ptr noundef null, i32 noundef 1, ptr noundef nonnull @scsistat_packet, ptr noundef nonnull @scsistat_init, ptr noundef nonnull @scsistat_param) #10
  %7 = tail call i32 @register_tap(ptr noundef nonnull @.str.1333) #10
  store i32 %7, ptr @scsi_tap, align 4
  ret void
}